target datalayout = "e-m:e-p270:32:32-p271:32:32-p272:64:64-i64:64-i128:128-f80:128-n8:16:32:64-S128"
target triple = "x86_64-pc-linux-gnu"

%struct.DecodeTable = type { i32, [16 x i32], [16 x i32], i32, [1024 x i8], [1024 x i16], [306 x i16] }

; Function Attrs: mustprogress nounwind uwtable
define void @_ZN6Unpack16MakeDecodeTablesEPhP11DecodeTablej(ptr noundef nonnull align 8 dereferenceable(59688) %0, ptr noundef %1, ptr noundef %2, i32 noundef %3) #1 align 2 {
  %5 = alloca ptr, align 8
  %6 = alloca ptr, align 8
  %7 = alloca ptr, align 8
  %8 = alloca i32, align 4
  %9 = alloca [16 x i32], align 16
  %10 = alloca i64, align 8
  %11 = alloca i32, align 4
  %12 = alloca i64, align 8
  %13 = alloca i32, align 4
  %14 = alloca [16 x i32], align 16
  %15 = alloca i32, align 4
  %16 = alloca i8, align 1
  %17 = alloca i32, align 4
  %18 = alloca i32, align 4
  %19 = alloca i32, align 4
  %20 = alloca i32, align 4
  %21 = alloca i32, align 4
  %22 = alloca i32, align 4
  %23 = alloca i32, align 4
  store ptr %0, ptr %5, align 8
  store ptr %1, ptr %6, align 8
  store ptr %2, ptr %7, align 8
  store i32 %3, ptr %8, align 4
  %24 = load i32, ptr %8, align 4
  %25 = load ptr, ptr %7, align 8
  %26 = getelementptr inbounds %struct.DecodeTable, ptr %25, i32 0, i32 0
  store i32 %24, ptr %26, align 4
  %27 = getelementptr inbounds [16 x i32], ptr %9, i64 0, i64 0
  call void @llvm.memset.p0.i64(ptr align 16 %27, i8 0, i64 64, i1 false)
  store i64 0, ptr %10, align 8
  br label %28

28:                                               ; preds = %44, %4
  %29 = load i64, ptr %10, align 8
  %30 = load i32, ptr %8, align 4
  %31 = zext i32 %30 to i64
  %32 = icmp ult i64 %29, %31
  br i1 %32, label %33, label %47

33:                                               ; preds = %28
  %34 = load ptr, ptr %6, align 8
  %35 = load i64, ptr %10, align 8
  %36 = getelementptr inbounds i8, ptr %34, i64 %35
  %37 = load i8, ptr %36, align 1
  %38 = zext i8 %37 to i32
  %39 = and i32 %38, 15
  %40 = sext i32 %39 to i64
  %41 = getelementptr inbounds [16 x i32], ptr %9, i64 0, i64 %40
  %42 = load i32, ptr %41, align 4
  %43 = add i32 %42, 1
  store i32 %43, ptr %41, align 4
  br label %44

44:                                               ; preds = %33
  %45 = load i64, ptr %10, align 8
  %46 = add i64 %45, 1
  store i64 %46, ptr %10, align 8
  br label %28, !llvm.loop !66

47:                                               ; preds = %28
  %48 = getelementptr inbounds [16 x i32], ptr %9, i64 0, i64 0
  store i32 0, ptr %48, align 16
  %49 = load ptr, ptr %7, align 8
  %50 = getelementptr inbounds %struct.DecodeTable, ptr %49, i32 0, i32 6
  %51 = getelementptr inbounds [306 x i16], ptr %50, i64 0, i64 0
  %52 = load i32, ptr %8, align 4
  %53 = zext i32 %52 to i64
  %54 = mul i64 %53, 2
  call void @llvm.memset.p0.i64(ptr align 4 %51, i8 0, i64 %54, i1 false)
  %55 = load ptr, ptr %7, align 8
  %56 = getelementptr inbounds %struct.DecodeTable, ptr %55, i32 0, i32 2
  %57 = getelementptr inbounds [16 x i32], ptr %56, i64 0, i64 0
  store i32 0, ptr %57, align 4
  %58 = load ptr, ptr %7, align 8
  %59 = getelementptr inbounds %struct.DecodeTable, ptr %58, i32 0, i32 1
  %60 = getelementptr inbounds [16 x i32], ptr %59, i64 0, i64 0
  store i32 0, ptr %60, align 4
  store i32 0, ptr %11, align 4
  store i64 1, ptr %12, align 8
  br label %61

61:                                               ; preds = %97, %47
  %62 = load i64, ptr %12, align 8
  %63 = icmp ult i64 %62, 16
  br i1 %63, label %64, label %100

64:                                               ; preds = %61
  %65 = load i64, ptr %12, align 8
  %66 = getelementptr inbounds [16 x i32], ptr %9, i64 0, i64 %65
  %67 = load i32, ptr %66, align 4
  %68 = load i32, ptr %11, align 4
  %69 = add i32 %68, %67
  store i32 %69, ptr %11, align 4
  %70 = load i32, ptr %11, align 4
  %71 = load i64, ptr %12, align 8
  %72 = sub i64 16, %71
  %73 = trunc i64 %72 to i32
  %74 = shl i32 %70, %73
  store i32 %74, ptr %13, align 4
  %75 = load i32, ptr %11, align 4
  %76 = mul i32 %75, 2
  store i32 %76, ptr %11, align 4
  %77 = load i32, ptr %13, align 4
  %78 = load ptr, ptr %7, align 8
  %79 = getelementptr inbounds %struct.DecodeTable, ptr %78, i32 0, i32 1
  %80 = load i64, ptr %12, align 8
  %81 = getelementptr inbounds [16 x i32], ptr %79, i64 0, i64 %80
  store i32 %77, ptr %81, align 4
  %82 = load ptr, ptr %7, align 8
  %83 = getelementptr inbounds %struct.DecodeTable, ptr %82, i32 0, i32 2
  %84 = load i64, ptr %12, align 8
  %85 = sub i64 %84, 1
  %86 = getelementptr inbounds [16 x i32], ptr %83, i64 0, i64 %85
  %87 = load i32, ptr %86, align 4
  %88 = load i64, ptr %12, align 8
  %89 = sub i64 %88, 1
  %90 = getelementptr inbounds [16 x i32], ptr %9, i64 0, i64 %89
  %91 = load i32, ptr %90, align 4
  %92 = add i32 %87, %91
  %93 = load ptr, ptr %7, align 8
  %94 = getelementptr inbounds %struct.DecodeTable, ptr %93, i32 0, i32 2
  %95 = load i64, ptr %12, align 8
  %96 = getelementptr inbounds [16 x i32], ptr %94, i64 0, i64 %95
  store i32 %92, ptr %96, align 4
  br label %97

97:                                               ; preds = %64
  %98 = load i64, ptr %12, align 8
  %99 = add i64 %98, 1
  store i64 %99, ptr %12, align 8
  br label %61, !llvm.loop !67

100:                                              ; preds = %61
  %101 = getelementptr inbounds [16 x i32], ptr %14, i64 0, i64 0
  %102 = load ptr, ptr %7, align 8
  %103 = getelementptr inbounds %struct.DecodeTable, ptr %102, i32 0, i32 2
  %104 = getelementptr inbounds [16 x i32], ptr %103, i64 0, i64 0
  call void @llvm.memcpy.p0.p0.i64(ptr align 16 %101, ptr align 4 %104, i64 64, i1 false)
  store i32 0, ptr %15, align 4
  br label %105

105:                                              ; preds = %139, %100
  %106 = load i32, ptr %15, align 4
  %107 = load i32, ptr %8, align 4
  %108 = icmp ult i32 %106, %107
  br i1 %108, label %109, label %142

109:                                              ; preds = %105
  %110 = load ptr, ptr %6, align 8
  %111 = load i32, ptr %15, align 4
  %112 = zext i32 %111 to i64
  %113 = getelementptr inbounds i8, ptr %110, i64 %112
  %114 = load i8, ptr %113, align 1
  %115 = zext i8 %114 to i32
  %116 = and i32 %115, 15
  %117 = trunc i32 %116 to i8
  store i8 %117, ptr %16, align 1
  %118 = load i8, ptr %16, align 1
  %119 = zext i8 %118 to i32
  %120 = icmp ne i32 %119, 0
  br i1 %120, label %121, label %138

121:                                              ; preds = %109
  %122 = load i8, ptr %16, align 1
  %123 = zext i8 %122 to i64
  %124 = getelementptr inbounds [16 x i32], ptr %14, i64 0, i64 %123
  %125 = load i32, ptr %124, align 4
  store i32 %125, ptr %17, align 4
  %126 = load i32, ptr %15, align 4
  %127 = trunc i32 %126 to i16
  %128 = load ptr, ptr %7, align 8
  %129 = getelementptr inbounds %struct.DecodeTable, ptr %128, i32 0, i32 6
  %130 = load i32, ptr %17, align 4
  %131 = zext i32 %130 to i64
  %132 = getelementptr inbounds [306 x i16], ptr %129, i64 0, i64 %131
  store i16 %127, ptr %132, align 2
  %133 = load i8, ptr %16, align 1
  %134 = zext i8 %133 to i64
  %135 = getelementptr inbounds [16 x i32], ptr %14, i64 0, i64 %134
  %136 = load i32, ptr %135, align 4
  %137 = add i32 %136, 1
  store i32 %137, ptr %135, align 4
  br label %138

138:                                              ; preds = %121, %109
  br label %139

139:                                              ; preds = %138
  %140 = load i32, ptr %15, align 4
  %141 = add i32 %140, 1
  store i32 %141, ptr %15, align 4
  br label %105, !llvm.loop !68

142:                                              ; preds = %105
  %143 = load i32, ptr %8, align 4
  switch i32 %143, label %147 [
    i32 306, label %144
    i32 298, label %144
    i32 299, label %144
  ]

144:                                              ; preds = %142, %142, %142
  %145 = load ptr, ptr %7, align 8
  %146 = getelementptr inbounds %struct.DecodeTable, ptr %145, i32 0, i32 3
  store i32 10, ptr %146, align 4
  br label %150

147:                                              ; preds = %142
  %148 = load ptr, ptr %7, align 8
  %149 = getelementptr inbounds %struct.DecodeTable, ptr %148, i32 0, i32 3
  store i32 7, ptr %149, align 4
  br label %150

150:                                              ; preds = %147, %144
  %151 = load ptr, ptr %7, align 8
  %152 = getelementptr inbounds %struct.DecodeTable, ptr %151, i32 0, i32 3
  %153 = load i32, ptr %152, align 4
  %154 = shl i32 1, %153
  store i32 %154, ptr %18, align 4
  store i32 1, ptr %19, align 4
  store i32 0, ptr %20, align 4
  br label %155

155:                                              ; preds = %238, %150
  %156 = load i32, ptr %20, align 4
  %157 = load i32, ptr %18, align 4
  %158 = icmp ult i32 %156, %157
  br i1 %158, label %159, label %241

159:                                              ; preds = %155
  %160 = load i32, ptr %20, align 4
  %161 = load ptr, ptr %7, align 8
  %162 = getelementptr inbounds %struct.DecodeTable, ptr %161, i32 0, i32 3
  %163 = load i32, ptr %162, align 4
  %164 = sub i32 16, %163
  %165 = shl i32 %160, %164
  store i32 %165, ptr %21, align 4
  br label %166

166:                                              ; preds = %181, %159
  %167 = load i32, ptr %19, align 4
  %168 = zext i32 %167 to i64
  %169 = icmp ult i64 %168, 16
  br i1 %169, label %170, label %179

170:                                              ; preds = %166
  %171 = load i32, ptr %21, align 4
  %172 = load ptr, ptr %7, align 8
  %173 = getelementptr inbounds %struct.DecodeTable, ptr %172, i32 0, i32 1
  %174 = load i32, ptr %19, align 4
  %175 = zext i32 %174 to i64
  %176 = getelementptr inbounds [16 x i32], ptr %173, i64 0, i64 %175
  %177 = load i32, ptr %176, align 4
  %178 = icmp uge i32 %171, %177
  br label %179

179:                                              ; preds = %170, %166
  %180 = phi i1 [ false, %166 ], [ %178, %170 ]
  br i1 %180, label %181, label %184

181:                                              ; preds = %179
  %182 = load i32, ptr %19, align 4
  %183 = add i32 %182, 1
  store i32 %183, ptr %19, align 4
  br label %166, !llvm.loop !69

184:                                              ; preds = %179
  %185 = load i32, ptr %19, align 4
  %186 = trunc i32 %185 to i8
  %187 = load ptr, ptr %7, align 8
  %188 = getelementptr inbounds %struct.DecodeTable, ptr %187, i32 0, i32 4
  %189 = load i32, ptr %20, align 4
  %190 = zext i32 %189 to i64
  %191 = getelementptr inbounds [1024 x i8], ptr %188, i64 0, i64 %190
  store i8 %186, ptr %191, align 1
  %192 = load i32, ptr %21, align 4
  %193 = load ptr, ptr %7, align 8
  %194 = getelementptr inbounds %struct.DecodeTable, ptr %193, i32 0, i32 1
  %195 = load i32, ptr %19, align 4
  %196 = sub i32 %195, 1
  %197 = zext i32 %196 to i64
  %198 = getelementptr inbounds [16 x i32], ptr %194, i64 0, i64 %197
  %199 = load i32, ptr %198, align 4
  %200 = sub i32 %192, %199
  store i32 %200, ptr %22, align 4
  %201 = load i32, ptr %19, align 4
  %202 = sub i32 16, %201
  %203 = load i32, ptr %22, align 4
  %204 = lshr i32 %203, %202
  store i32 %204, ptr %22, align 4
  %205 = load i32, ptr %19, align 4
  %206 = zext i32 %205 to i64
  %207 = icmp ult i64 %206, 16
  br i1 %207, label %208, label %231

208:                                              ; preds = %184
  %209 = load ptr, ptr %7, align 8
  %210 = getelementptr inbounds %struct.DecodeTable, ptr %209, i32 0, i32 2
  %211 = load i32, ptr %19, align 4
  %212 = zext i32 %211 to i64
  %213 = getelementptr inbounds [16 x i32], ptr %210, i64 0, i64 %212
  %214 = load i32, ptr %213, align 4
  %215 = load i32, ptr %22, align 4
  %216 = add i32 %214, %215
  store i32 %216, ptr %23, align 4
  %217 = load i32, ptr %8, align 4
  %218 = icmp ult i32 %216, %217
  br i1 %218, label %219, label %231

219:                                              ; preds = %208
  %220 = load ptr, ptr %7, align 8
  %221 = getelementptr inbounds %struct.DecodeTable, ptr %220, i32 0, i32 6
  %222 = load i32, ptr %23, align 4
  %223 = zext i32 %222 to i64
  %224 = getelementptr inbounds [306 x i16], ptr %221, i64 0, i64 %223
  %225 = load i16, ptr %224, align 2
  %226 = load ptr, ptr %7, align 8
  %227 = getelementptr inbounds %struct.DecodeTable, ptr %226, i32 0, i32 5
  %228 = load i32, ptr %20, align 4
  %229 = zext i32 %228 to i64
  %230 = getelementptr inbounds [1024 x i16], ptr %227, i64 0, i64 %229
  store i16 %225, ptr %230, align 2
  br label %237

231:                                              ; preds = %208, %184
  %232 = load ptr, ptr %7, align 8
  %233 = getelementptr inbounds %struct.DecodeTable, ptr %232, i32 0, i32 5
  %234 = load i32, ptr %20, align 4
  %235 = zext i32 %234 to i64
  %236 = getelementptr inbounds [1024 x i16], ptr %233, i64 0, i64 %235
  store i16 0, ptr %236, align 2
  br label %237

237:                                              ; preds = %231, %219
  br label %238

238:                                              ; preds = %237
  %239 = load i32, ptr %20, align 4
  %240 = add i32 %239, 1
  store i32 %240, ptr %20, align 4
  br label %155, !llvm.loop !70

241:                                              ; preds = %155
  ret void
}