; Function Attrs: mustprogress nofree norecurse nosync nounwind memory(argmem: readwrite) uwtable
define void @_ZN6Unpack16MakeDecodeTablesEPhP11DecodeTablej(ptr nocapture nonnull readnone align 8 %0, ptr nocapture noundef readonly %1, ptr nocapture noundef %2, i32 noundef %3) local_unnamed_addr #6 align 2 {
  %5 = alloca [16 x i32], align 16
  %6 = alloca [16 x i32], align 16
  store i32 %3, ptr %2, align 4
  call void @llvm.memset.p0.i64(ptr noundef nonnull align 16 dereferenceable(64) %5, i8 0, i64 64, i1 false)
  %7 = zext i32 %3 to i64
  %.not99 = icmp eq i32 %3, 0
  br i1 %.not99, label %._crit_edge, label %.lr.ph

.lr.ph:                                           ; preds = %4, %.lr.ph
  %.085 = phi i64 [ %15, %.lr.ph ], [ 0, %4 ]
  %8 = getelementptr inbounds i8, ptr %1, i64 %.085
  %9 = load i8, ptr %8, align 1
  %10 = and i8 %9, 15
  %11 = zext nneg i8 %10 to i64
  %12 = getelementptr inbounds [16 x i32], ptr %5, i64 0, i64 %11
  %13 = load i32, ptr %12, align 4
  %14 = add i32 %13, 1
  store i32 %14, ptr %12, align 4
  %15 = add nuw nsw i64 %.085, 1
  %exitcond.not = icmp eq i64 %15, %7
  br i1 %exitcond.not, label %._crit_edge, label %.lr.ph, !llvm.loop !67

._crit_edge:                                      ; preds = %.lr.ph, %4
  %16 = getelementptr inbounds i8, ptr %2, i64 3208
  %17 = shl nuw nsw i64 %7, 1
  tail call void @llvm.memset.p0.i64(ptr nonnull align 4 %16, i8 0, i64 %17, i1 false)
  %18 = getelementptr inbounds i8, ptr %2, i64 68
  store i32 0, ptr %18, align 4
  %19 = getelementptr inbounds i8, ptr %2, i64 4
  store i32 0, ptr %19, align 4
  br label %20

20:                                               ; preds = %._crit_edge, %20
  %21 = phi i32 [ 0, %._crit_edge ], [ %24, %20 ]
  %22 = phi i32 [ 0, %._crit_edge ], [ %31, %20 ]
  %.07087 = phi i32 [ 0, %._crit_edge ], [ %29, %20 ]
  %.07386 = phi i64 [ 1, %._crit_edge ], [ %33, %20 ]
  %23 = getelementptr inbounds [16 x i32], ptr %5, i64 0, i64 %.07386
  %24 = load i32, ptr %23, align 4
  %25 = add i32 %24, %.07087
  %26 = trunc nuw i64 %.07386 to i32
  %27 = sub nuw nsw i32 16, %26
  %28 = shl i32 %25, %27
  %29 = shl i32 %25, 1
  %30 = getelementptr inbounds [16 x i32], ptr %19, i64 0, i64 %.07386
  store i32 %28, ptr %30, align 4
  %31 = add i32 %21, %22
  %32 = getelementptr inbounds [16 x i32], ptr %18, i64 0, i64 %.07386
  store i32 %31, ptr %32, align 4
  %33 = add nuw nsw i64 %.07386, 1
  %exitcond104.not = icmp eq i64 %33, 16
  br i1 %exitcond104.not, label %34, label %20, !llvm.loop !68

34:                                               ; preds = %20
  call void @llvm.memcpy.p0.p0.i64(ptr noundef nonnull align 16 dereferenceable(64) %6, ptr noundef nonnull align 4 dereferenceable(64) %18, i64 64, i1 false)
  br i1 %.not99, label %._crit_edge91.thread, label %.lr.ph90

.lr.ph90:                                         ; preds = %34, %46
  %indvars.iv = phi i64 [ %indvars.iv.next, %46 ], [ 0, %34 ]
  %35 = getelementptr inbounds i8, ptr %1, i64 %indvars.iv
  %36 = load i8, ptr %35, align 1
  %37 = and i8 %36, 15
  %.not80 = icmp eq i8 %37, 0
  br i1 %.not80, label %46, label %38

38:                                               ; preds = %.lr.ph90
  %39 = zext nneg i8 %37 to i64
  %40 = getelementptr inbounds [16 x i32], ptr %6, i64 0, i64 %39
  %41 = load i32, ptr %40, align 4
  %42 = trunc i64 %indvars.iv to i16
  %43 = zext i32 %41 to i64
  %44 = getelementptr inbounds [306 x i16], ptr %16, i64 0, i64 %43
  store i16 %42, ptr %44, align 2
  %45 = add i32 %41, 1
  store i32 %45, ptr %40, align 4
  br label %46

46:                                               ; preds = %.lr.ph90, %38
  %indvars.iv.next = add nuw nsw i64 %indvars.iv, 1
  %exitcond106.not = icmp eq i64 %indvars.iv.next, %7
  br i1 %exitcond106.not, label %._crit_edge91, label %.lr.ph90, !llvm.loop !69

._crit_edge91:                                    ; preds = %46
  switch i32 %3, label %._crit_edge91.thread [
    i32 306, label %47
    i32 298, label %47
    i32 299, label %47
  ]

._crit_edge91.thread:                             ; preds = %34, %._crit_edge91
  br label %47

47:                                               ; preds = %._crit_edge91, %._crit_edge91, %._crit_edge91, %._crit_edge91.thread
  %.sink = phi i32 [ 7, %._crit_edge91.thread ], [ 10, %._crit_edge91 ], [ 10, %._crit_edge91 ], [ 10, %._crit_edge91 ]
  %48 = getelementptr inbounds i8, ptr %2, i64 132
  store i32 %.sink, ptr %48, align 4
  %49 = sub nuw nsw i32 16, %.sink
  %50 = getelementptr inbounds i8, ptr %2, i64 136
  %51 = getelementptr inbounds i8, ptr %2, i64 1160
  br label %52

52:                                               ; preds = %47, %82
  %.07197 = phi i32 [ 0, %47 ], [ %84, %82 ]
  %.07296 = phi i32 [ 1, %47 ], [ %.183, %82 ]
  %53 = shl i32 %.07197, %49
  %54 = icmp ult i32 %.07296, 16
  br i1 %54, label %.lr.ph94.preheader, label %.critedge

.lr.ph94.preheader:                               ; preds = %52
  %55 = zext nneg i32 %.07296 to i64
  br label %.lr.ph94

.lr.ph94:                                         ; preds = %.lr.ph94.preheader, %58
  %indvars.iv107 = phi i64 [ %55, %.lr.ph94.preheader ], [ %indvars.iv.next108, %58 ]
  %56 = getelementptr inbounds [16 x i32], ptr %19, i64 0, i64 %indvars.iv107
  %57 = load i32, ptr %56, align 4
  %.not = icmp ult i32 %53, %57
  br i1 %.not, label %62, label %58

58:                                               ; preds = %.lr.ph94
  %indvars.iv.next108 = add nuw nsw i64 %indvars.iv107, 1
  %exitcond110.not = icmp eq i64 %indvars.iv.next108, 16
  br i1 %exitcond110.not, label %.critedge, label %.lr.ph94, !llvm.loop !70

.critedge:                                        ; preds = %58, %52
  %.1.lcssa = phi i32 [ %.07296, %52 ], [ 16, %58 ]
  %59 = trunc i32 %.1.lcssa to i8
  %60 = zext i32 %.07197 to i64
  %61 = getelementptr inbounds [1024 x i8], ptr %50, i64 0, i64 %60
  store i8 %59, ptr %61, align 1
  br label %82

62:                                               ; preds = %.lr.ph94
  %63 = trunc nuw nsw i64 %indvars.iv107 to i32
  %64 = trunc i64 %indvars.iv107 to i8
  %65 = zext i32 %.07197 to i64
  %66 = getelementptr inbounds [1024 x i8], ptr %50, i64 0, i64 %65
  store i8 %64, ptr %66, align 1
  %67 = add nuw i64 %indvars.iv107, 4294967295
  %68 = and i64 %67, 4294967295
  %69 = getelementptr inbounds [16 x i32], ptr %19, i64 0, i64 %68
  %70 = load i32, ptr %69, align 4
  %71 = sub i32 %53, %70
  %72 = sub nuw nsw i32 16, %63
  %73 = lshr i32 %71, %72
  %74 = getelementptr inbounds [16 x i32], ptr %18, i64 0, i64 %indvars.iv107
  %75 = load i32, ptr %74, align 4
  %76 = add i32 %73, %75
  %77 = icmp ult i32 %76, %3
  br i1 %77, label %78, label %82

78:                                               ; preds = %62
  %79 = zext i32 %76 to i64
  %80 = getelementptr inbounds [306 x i16], ptr %16, i64 0, i64 %79
  %81 = load i16, ptr %80, align 2
  br label %82

82:                                               ; preds = %62, %.critedge, %78
  %.sink115 = phi i64 [ %65, %78 ], [ %65, %62 ], [ %60, %.critedge ]
  %.sink113 = phi i16 [ %81, %78 ], [ 0, %62 ], [ 0, %.critedge ]
  %.183 = phi i32 [ %63, %78 ], [ %63, %62 ], [ %.1.lcssa, %.critedge ]
  %83 = getelementptr inbounds [1024 x i16], ptr %51, i64 0, i64 %.sink115
  store i16 %.sink113, ptr %83, align 2
  %84 = add i32 %.07197, 1
  %.071.highbits = lshr i32 %84, %.sink
  %85 = icmp eq i32 %.071.highbits, 0
  br i1 %85, label %52, label %86, !llvm.loop !71

86:                                               ; preds = %82
  ret void
}